Archive member included to satisfy reference by file (symbol)

/home/cory/Documents/GitHub/Micro-OS/toolchain/i686-elf/lib/gcc/i686-elf/11.2.0/libgcc.a(_udivdi3.o)
                              /home/cory/Documents/GitHub/Micro-OS/build/kernel/c/stdio.obj (__udivdi3)
/home/cory/Documents/GitHub/Micro-OS/toolchain/i686-elf/lib/gcc/i686-elf/11.2.0/libgcc.a(_umoddi3.o)
                              /home/cory/Documents/GitHub/Micro-OS/build/kernel/c/stdio.obj (__umoddi3)

Memory Configuration

Name             Origin             Length             Attributes
*default*        0x0000000000000000 0xffffffffffffffff

Linker script and memory map

LOAD /home/cory/Documents/GitHub/Micro-OS/build/kernel/asm/arch/i686/io.obj
LOAD /home/cory/Documents/GitHub/Micro-OS/build/kernel/asm/arch/i686/idt.obj
LOAD /home/cory/Documents/GitHub/Micro-OS/build/kernel/asm/arch/i686/gdt.obj
LOAD /home/cory/Documents/GitHub/Micro-OS/build/kernel/c/stdio.obj
LOAD /home/cory/Documents/GitHub/Micro-OS/build/kernel/c/memory.obj
LOAD /home/cory/Documents/GitHub/Micro-OS/build/kernel/c/main.obj
LOAD /home/cory/Documents/GitHub/Micro-OS/build/kernel/c/hal/hal.obj
LOAD /home/cory/Documents/GitHub/Micro-OS/build/kernel/c/arch/i686/idt.obj
LOAD /home/cory/Documents/GitHub/Micro-OS/build/kernel/c/arch/i686/gdt.obj
LOAD /home/cory/Documents/GitHub/Micro-OS/toolchain/i686-elf/lib/gcc/i686-elf/11.2.0/libgcc.a
                0x0000000000100000                phys = 0x100000
                0x0000000000100000                . = phys

.entry          0x0000000000100000       0x7e
                0x0000000000100000                __entry_start = .
 *(.entry)
 .entry         0x0000000000100000       0x7e /home/cory/Documents/GitHub/Micro-OS/build/kernel/c/main.obj
                0x0000000000100000                start

.text           0x0000000000100080     0x14b0
                0x0000000000100080                __text_start = .
 *(.text)
 .text          0x0000000000100080       0x14 /home/cory/Documents/GitHub/Micro-OS/build/kernel/asm/arch/i686/io.obj
                0x0000000000100080                i686_outb
                0x000000000010008b                i686_inb
 *fill*         0x0000000000100094        0xc 
 .text          0x00000000001000a0        0xd /home/cory/Documents/GitHub/Micro-OS/build/kernel/asm/arch/i686/idt.obj
                0x00000000001000a0                i686_IDT_Load
 *fill*         0x00000000001000ad        0x3 
 .text          0x00000000001000b0       0x25 /home/cory/Documents/GitHub/Micro-OS/build/kernel/asm/arch/i686/gdt.obj
                0x00000000001000b0                i686_GDT_Load
 .text          0x00000000001000d5      0x895 /home/cory/Documents/GitHub/Micro-OS/build/kernel/c/stdio.obj
                0x00000000001000d5                putchr
                0x0000000000100104                putcolor
                0x0000000000100136                getchr
                0x0000000000100158                getcolor
                0x000000000010017d                setcursor
                0x00000000001001ee                clrscr
                0x000000000010027c                scrollback
                0x000000000010036a                putc
                0x0000000000100477                puts
                0x00000000001004a6                printf_unsigned
                0x000000000010055f                printf_signed
                0x00000000001005bc                printf
                0x00000000001008d1                print_buffer
 .text          0x000000000010096a       0xf5 /home/cory/Documents/GitHub/Micro-OS/build/kernel/c/memory.obj
                0x000000000010096a                memcpy
                0x00000000001009bc                memset
                0x00000000001009ff                memcmp
 .text          0x0000000000100a5f      0x762 /home/cory/Documents/GitHub/Micro-OS/build/kernel/c/main.obj
                0x0000000000100a5f                long_buzz
                0x0000000000100a78                short_buzz
                0x0000000000100a91                output
 .text          0x00000000001011c1       0x13 /home/cory/Documents/GitHub/Micro-OS/build/kernel/c/hal/hal.obj
                0x00000000001011c1                HAL_Initialize
 .text          0x00000000001011d4       0xbc /home/cory/Documents/GitHub/Micro-OS/build/kernel/c/arch/i686/idt.obj
                0x00000000001011d4                i686_IDT_SetGate
                0x0000000000101237                i686_IDT_EnableGate
                0x0000000000101257                i686_IDT_DisableGate
                0x0000000000101277                i686_IDT_Initialize
 .text          0x0000000000101290       0x1d /home/cory/Documents/GitHub/Micro-OS/build/kernel/c/arch/i686/gdt.obj
                0x0000000000101290                i686_GDT_Initialize
 *fill*         0x00000000001012ad        0x3 
 .text          0x00000000001012b0      0x12a /home/cory/Documents/GitHub/Micro-OS/toolchain/i686-elf/lib/gcc/i686-elf/11.2.0/libgcc.a(_udivdi3.o)
                0x00000000001012b0                __udivdi3
 *fill*         0x00000000001013da        0x6 
 .text          0x00000000001013e0      0x150 /home/cory/Documents/GitHub/Micro-OS/toolchain/i686-elf/lib/gcc/i686-elf/11.2.0/libgcc.a(_umoddi3.o)
                0x00000000001013e0                __umoddi3

.data           0x0000000000101540      0x1d2
                0x0000000000101540                __data_start = .
 *(.data)
 .data          0x0000000000101540        0x4 /home/cory/Documents/GitHub/Micro-OS/build/kernel/c/stdio.obj
                0x0000000000101540                g_ScreenBuffer
 .data          0x0000000000101544        0x0 /home/cory/Documents/GitHub/Micro-OS/build/kernel/c/memory.obj
 *fill*         0x0000000000101544       0x1c 
 .data          0x0000000000101560      0x18c /home/cory/Documents/GitHub/Micro-OS/build/kernel/c/main.obj
                0x0000000000101560                a
                0x0000000000101568                b
                0x0000000000101578                c
                0x0000000000101588                d
                0x0000000000101594                e
                0x0000000000101598                f
                0x00000000001015a8                g
                0x00000000001015b4                h
                0x00000000001015c4                l_i
                0x00000000001015cc                j
                0x00000000001015dc                k
                0x00000000001015e8                l
                0x00000000001015f8                m
                0x0000000000101600                n
                0x0000000000101608                o
                0x0000000000101614                p
                0x0000000000101624                q
                0x0000000000101634                r
                0x0000000000101640                s
                0x000000000010164c                t
                0x0000000000101650                u
                0x000000000010165c                v
                0x000000000010166c                w
                0x0000000000101678                x
                0x0000000000101688                y
                0x0000000000101698                z
                0x00000000001016c0                string
 .data          0x00000000001016ec        0x0 /home/cory/Documents/GitHub/Micro-OS/build/kernel/c/hal/hal.obj
 .data          0x00000000001016ec        0x6 /home/cory/Documents/GitHub/Micro-OS/build/kernel/c/arch/i686/idt.obj
                0x00000000001016ec                g_IDTDescriptor
 *fill*         0x00000000001016f2        0x2 
 .data          0x00000000001016f4       0x1e /home/cory/Documents/GitHub/Micro-OS/build/kernel/c/arch/i686/gdt.obj
                0x00000000001016f4                g_GDT
                0x000000000010170c                g_GDTDescriptor
 .data          0x0000000000101712        0x0 /home/cory/Documents/GitHub/Micro-OS/toolchain/i686-elf/lib/gcc/i686-elf/11.2.0/libgcc.a(_udivdi3.o)
 .data          0x0000000000101712        0x0 /home/cory/Documents/GitHub/Micro-OS/toolchain/i686-elf/lib/gcc/i686-elf/11.2.0/libgcc.a(_umoddi3.o)

.rodata         0x0000000000101714      0x13f
                0x0000000000101714                __rodata_start = .
 *(.rodata)
 .rodata        0x0000000000101714       0xba /home/cory/Documents/GitHub/Micro-OS/build/kernel/c/stdio.obj
                0x0000000000101714                SCREEN_WIDTH
                0x0000000000101718                SCREEN_HEIGHT
                0x000000000010171c                DEFAULT_COLOR
                0x0000000000101720                g_HexChars
 *fill*         0x00000000001017ce        0x2 
 .rodata        0x00000000001017d0       0x83 /home/cory/Documents/GitHub/Micro-OS/build/kernel/c/main.obj

.eh_frame       0x0000000000101854       0xd8
 .eh_frame      0x0000000000101854       0x64 /home/cory/Documents/GitHub/Micro-OS/toolchain/i686-elf/lib/gcc/i686-elf/11.2.0/libgcc.a(_udivdi3.o)
 .eh_frame      0x00000000001018b8       0x74 /home/cory/Documents/GitHub/Micro-OS/toolchain/i686-elf/lib/gcc/i686-elf/11.2.0/libgcc.a(_umoddi3.o)

.bss            0x0000000000101940      0x820
                0x0000000000101940                __bss_start = .
 *(.bss)
 .bss           0x0000000000101940        0x8 /home/cory/Documents/GitHub/Micro-OS/build/kernel/c/stdio.obj
                0x0000000000101940                g_ScreenX
                0x0000000000101944                g_ScreenY
 .bss           0x0000000000101948        0x0 /home/cory/Documents/GitHub/Micro-OS/build/kernel/c/memory.obj
 .bss           0x0000000000101948        0x0 /home/cory/Documents/GitHub/Micro-OS/build/kernel/c/main.obj
 .bss           0x0000000000101948        0x0 /home/cory/Documents/GitHub/Micro-OS/build/kernel/c/hal/hal.obj
 *fill*         0x0000000000101948       0x18 
 .bss           0x0000000000101960      0x800 /home/cory/Documents/GitHub/Micro-OS/build/kernel/c/arch/i686/idt.obj
                0x0000000000101960                g_IDT
 .bss           0x0000000000102160        0x0 /home/cory/Documents/GitHub/Micro-OS/build/kernel/c/arch/i686/gdt.obj
 .bss           0x0000000000102160        0x0 /home/cory/Documents/GitHub/Micro-OS/toolchain/i686-elf/lib/gcc/i686-elf/11.2.0/libgcc.a(_udivdi3.o)
 .bss           0x0000000000102160        0x0 /home/cory/Documents/GitHub/Micro-OS/toolchain/i686-elf/lib/gcc/i686-elf/11.2.0/libgcc.a(_umoddi3.o)
                0x0000000000102160                __end = .
OUTPUT(/home/cory/Documents/GitHub/Micro-OS/build/kernel.bin binary)

.debug_info     0x0000000000000000     0x1882
 .debug_info    0x0000000000000000      0x54d /home/cory/Documents/GitHub/Micro-OS/build/kernel/c/stdio.obj
 .debug_info    0x000000000000054d      0x1e8 /home/cory/Documents/GitHub/Micro-OS/build/kernel/c/memory.obj
 .debug_info    0x0000000000000735      0x5fd /home/cory/Documents/GitHub/Micro-OS/build/kernel/c/main.obj
 .debug_info    0x0000000000000d32       0x99 /home/cory/Documents/GitHub/Micro-OS/build/kernel/c/hal/hal.obj
 .debug_info    0x0000000000000dcb      0x24e /home/cory/Documents/GitHub/Micro-OS/build/kernel/c/arch/i686/idt.obj
 .debug_info    0x0000000000001019      0x1fa /home/cory/Documents/GitHub/Micro-OS/build/kernel/c/arch/i686/gdt.obj
 .debug_info    0x0000000000001213      0x32c /home/cory/Documents/GitHub/Micro-OS/toolchain/i686-elf/lib/gcc/i686-elf/11.2.0/libgcc.a(_udivdi3.o)
 .debug_info    0x000000000000153f      0x343 /home/cory/Documents/GitHub/Micro-OS/toolchain/i686-elf/lib/gcc/i686-elf/11.2.0/libgcc.a(_umoddi3.o)

.debug_abbrev   0x0000000000000000      0x9a3
 .debug_abbrev  0x0000000000000000      0x1f6 /home/cory/Documents/GitHub/Micro-OS/build/kernel/c/stdio.obj
 .debug_abbrev  0x00000000000001f6       0xe2 /home/cory/Documents/GitHub/Micro-OS/build/kernel/c/memory.obj
 .debug_abbrev  0x00000000000002d8      0x193 /home/cory/Documents/GitHub/Micro-OS/build/kernel/c/main.obj
 .debug_abbrev  0x000000000000046b       0x5a /home/cory/Documents/GitHub/Micro-OS/build/kernel/c/hal/hal.obj
 .debug_abbrev  0x00000000000004c5      0x122 /home/cory/Documents/GitHub/Micro-OS/build/kernel/c/arch/i686/idt.obj
 .debug_abbrev  0x00000000000005e7       0xf0 /home/cory/Documents/GitHub/Micro-OS/build/kernel/c/arch/i686/gdt.obj
 .debug_abbrev  0x00000000000006d7      0x15b /home/cory/Documents/GitHub/Micro-OS/toolchain/i686-elf/lib/gcc/i686-elf/11.2.0/libgcc.a(_udivdi3.o)
 .debug_abbrev  0x0000000000000832      0x171 /home/cory/Documents/GitHub/Micro-OS/toolchain/i686-elf/lib/gcc/i686-elf/11.2.0/libgcc.a(_umoddi3.o)

.debug_aranges  0x0000000000000000      0x108
 .debug_aranges
                0x0000000000000000       0x20 /home/cory/Documents/GitHub/Micro-OS/build/kernel/c/stdio.obj
 .debug_aranges
                0x0000000000000020       0x20 /home/cory/Documents/GitHub/Micro-OS/build/kernel/c/memory.obj
 .debug_aranges
                0x0000000000000040       0x28 /home/cory/Documents/GitHub/Micro-OS/build/kernel/c/main.obj
 .debug_aranges
                0x0000000000000068       0x20 /home/cory/Documents/GitHub/Micro-OS/build/kernel/c/hal/hal.obj
 .debug_aranges
                0x0000000000000088       0x20 /home/cory/Documents/GitHub/Micro-OS/build/kernel/c/arch/i686/idt.obj
 .debug_aranges
                0x00000000000000a8       0x20 /home/cory/Documents/GitHub/Micro-OS/build/kernel/c/arch/i686/gdt.obj
 .debug_aranges
                0x00000000000000c8       0x20 /home/cory/Documents/GitHub/Micro-OS/toolchain/i686-elf/lib/gcc/i686-elf/11.2.0/libgcc.a(_udivdi3.o)
 .debug_aranges
                0x00000000000000e8       0x20 /home/cory/Documents/GitHub/Micro-OS/toolchain/i686-elf/lib/gcc/i686-elf/11.2.0/libgcc.a(_umoddi3.o)

.debug_line     0x0000000000000000      0xde1
 .debug_line    0x0000000000000000      0x3c5 /home/cory/Documents/GitHub/Micro-OS/build/kernel/c/stdio.obj
 .debug_line    0x00000000000003c5       0xe8 /home/cory/Documents/GitHub/Micro-OS/build/kernel/c/memory.obj
 .debug_line    0x00000000000004ad      0x4a3 /home/cory/Documents/GitHub/Micro-OS/build/kernel/c/main.obj
 .debug_line    0x0000000000000950       0x5e /home/cory/Documents/GitHub/Micro-OS/build/kernel/c/hal/hal.obj
 .debug_line    0x00000000000009ae       0x89 /home/cory/Documents/GitHub/Micro-OS/build/kernel/c/arch/i686/idt.obj
 .debug_line    0x0000000000000a37       0x5c /home/cory/Documents/GitHub/Micro-OS/build/kernel/c/arch/i686/gdt.obj
 .debug_line    0x0000000000000a93      0x179 /home/cory/Documents/GitHub/Micro-OS/toolchain/i686-elf/lib/gcc/i686-elf/11.2.0/libgcc.a(_udivdi3.o)
 .debug_line    0x0000000000000c0c      0x1d5 /home/cory/Documents/GitHub/Micro-OS/toolchain/i686-elf/lib/gcc/i686-elf/11.2.0/libgcc.a(_umoddi3.o)

.debug_str      0x0000000000000000      0xf19
 .debug_str     0x0000000000000000      0x24f /home/cory/Documents/GitHub/Micro-OS/build/kernel/c/stdio.obj
 .debug_str     0x000000000000024f      0x125 /home/cory/Documents/GitHub/Micro-OS/build/kernel/c/memory.obj
 .debug_str     0x0000000000000374      0x14e /home/cory/Documents/GitHub/Micro-OS/build/kernel/c/main.obj
 .debug_str     0x00000000000004c2      0x106 /home/cory/Documents/GitHub/Micro-OS/build/kernel/c/hal/hal.obj
 .debug_str     0x00000000000005c8      0x291 /home/cory/Documents/GitHub/Micro-OS/build/kernel/c/arch/i686/idt.obj
 .debug_str     0x0000000000000859      0x2fa /home/cory/Documents/GitHub/Micro-OS/build/kernel/c/arch/i686/gdt.obj
 .debug_str     0x0000000000000b53      0x1e3 /home/cory/Documents/GitHub/Micro-OS/toolchain/i686-elf/lib/gcc/i686-elf/11.2.0/libgcc.a(_udivdi3.o)
 .debug_str     0x0000000000000d36      0x1e3 /home/cory/Documents/GitHub/Micro-OS/toolchain/i686-elf/lib/gcc/i686-elf/11.2.0/libgcc.a(_umoddi3.o)

.debug_line_str
                0x0000000000000000      0x786
 .debug_line_str
                0x0000000000000000       0xf7 /home/cory/Documents/GitHub/Micro-OS/build/kernel/c/stdio.obj
 .debug_line_str
                0x00000000000000f7       0xe0 /home/cory/Documents/GitHub/Micro-OS/build/kernel/c/memory.obj
 .debug_line_str
                0x00000000000001d7       0xf7 /home/cory/Documents/GitHub/Micro-OS/build/kernel/c/main.obj
 .debug_line_str
                0x00000000000002ce       0x96 /home/cory/Documents/GitHub/Micro-OS/build/kernel/c/hal/hal.obj
 .debug_line_str
                0x0000000000000364       0xfb /home/cory/Documents/GitHub/Micro-OS/build/kernel/c/arch/i686/idt.obj
 .debug_line_str
                0x000000000000045f       0xf5 /home/cory/Documents/GitHub/Micro-OS/build/kernel/c/arch/i686/gdt.obj
 .debug_line_str
                0x0000000000000554      0x119 /home/cory/Documents/GitHub/Micro-OS/toolchain/i686-elf/lib/gcc/i686-elf/11.2.0/libgcc.a(_udivdi3.o)
 .debug_line_str
                0x000000000000066d      0x119 /home/cory/Documents/GitHub/Micro-OS/toolchain/i686-elf/lib/gcc/i686-elf/11.2.0/libgcc.a(_umoddi3.o)

.comment        0x0000000000000000       0x98
 .comment       0x0000000000000000       0x13 /home/cory/Documents/GitHub/Micro-OS/build/kernel/c/stdio.obj
 .comment       0x0000000000000013       0x13 /home/cory/Documents/GitHub/Micro-OS/build/kernel/c/memory.obj
 .comment       0x0000000000000026       0x13 /home/cory/Documents/GitHub/Micro-OS/build/kernel/c/main.obj
 .comment       0x0000000000000039       0x13 /home/cory/Documents/GitHub/Micro-OS/build/kernel/c/hal/hal.obj
 .comment       0x000000000000004c       0x13 /home/cory/Documents/GitHub/Micro-OS/build/kernel/c/arch/i686/idt.obj
 .comment       0x000000000000005f       0x13 /home/cory/Documents/GitHub/Micro-OS/build/kernel/c/arch/i686/gdt.obj
 .comment       0x0000000000000072       0x13 /home/cory/Documents/GitHub/Micro-OS/toolchain/i686-elf/lib/gcc/i686-elf/11.2.0/libgcc.a(_udivdi3.o)
 .comment       0x0000000000000085       0x13 /home/cory/Documents/GitHub/Micro-OS/toolchain/i686-elf/lib/gcc/i686-elf/11.2.0/libgcc.a(_umoddi3.o)

.debug_frame    0x0000000000000000      0x3bc
 .debug_frame   0x0000000000000000      0x1c0 /home/cory/Documents/GitHub/Micro-OS/build/kernel/c/stdio.obj
 .debug_frame   0x00000000000001c0       0x74 /home/cory/Documents/GitHub/Micro-OS/build/kernel/c/memory.obj
 .debug_frame   0x0000000000000234       0x8c /home/cory/Documents/GitHub/Micro-OS/build/kernel/c/main.obj
 .debug_frame   0x00000000000002c0       0x34 /home/cory/Documents/GitHub/Micro-OS/build/kernel/c/hal/hal.obj
 .debug_frame   0x00000000000002f4       0x94 /home/cory/Documents/GitHub/Micro-OS/build/kernel/c/arch/i686/idt.obj
 .debug_frame   0x0000000000000388       0x34 /home/cory/Documents/GitHub/Micro-OS/build/kernel/c/arch/i686/gdt.obj

.debug_rnglists
                0x0000000000000000       0x64
 .debug_rnglists
                0x0000000000000000       0x1a /home/cory/Documents/GitHub/Micro-OS/build/kernel/c/main.obj
 .debug_rnglists
                0x000000000000001a       0x2a /home/cory/Documents/GitHub/Micro-OS/toolchain/i686-elf/lib/gcc/i686-elf/11.2.0/libgcc.a(_udivdi3.o)
 .debug_rnglists
                0x0000000000000044       0x20 /home/cory/Documents/GitHub/Micro-OS/toolchain/i686-elf/lib/gcc/i686-elf/11.2.0/libgcc.a(_umoddi3.o)

.debug_loclists
                0x0000000000000000      0x9a0
 .debug_loclists
                0x0000000000000000      0x50b /home/cory/Documents/GitHub/Micro-OS/toolchain/i686-elf/lib/gcc/i686-elf/11.2.0/libgcc.a(_udivdi3.o)
 .debug_loclists
                0x000000000000050b      0x495 /home/cory/Documents/GitHub/Micro-OS/toolchain/i686-elf/lib/gcc/i686-elf/11.2.0/libgcc.a(_umoddi3.o)
